; Function Attrs: nounwind uwtable
define void @Abc_NtkDontCareWinSweepLeafTfo(ptr noundef readonly captures(none) %0) local_unnamed_addr #0 {
  %2 = getelementptr inbounds nuw i8, ptr %0, i64 24
  %3 = load ptr, ptr %2, align 8, !tbaa !98
  %4 = load ptr, ptr %3, align 8, !tbaa !78
  %5 = getelementptr inbounds nuw i8, ptr %4, i64 232
  %6 = load ptr, ptr %5, align 8, !tbaa !99
  %.not.i = icmp eq ptr %6, null
  br i1 %.not.i, label %7, label %Abc_NtkIncrementTravId.exit

7:                                                ; preds = %1
  %8 = getelementptr inbounds nuw i8, ptr %4, i64 224
  %9 = getelementptr i8, ptr %4, i64 32
  %.val.i = load ptr, ptr %9, align 8, !tbaa !96
  %10 = getelementptr i8, ptr %.val.i, i64 4
  %.val.val.i = load i32, ptr %10, align 4, !tbaa !21
  %11 = add nsw i32 %.val.val.i, 500
  %12 = load i32, ptr %8, align 8, !tbaa !39
  %.not.i.i.i = icmp slt i32 %12, %11
  br i1 %.not.i.i.i, label %13, label %Vec_IntGrow.exit.i.i

13:                                               ; preds = %7
  %14 = sext i32 %11 to i64
  %15 = shl nsw i64 %14, 2
  %16 = tail call noalias ptr @malloc(i64 noundef %15) #20
  store ptr %16, ptr %5, align 8, !tbaa !40
  store i32 %11, ptr %8, align 8, !tbaa !39
  br label %Vec_IntGrow.exit.i.i

Vec_IntGrow.exit.i.i:                             ; preds = %13, %7
  %17 = phi ptr [ %16, %13 ], [ null, %7 ]
  %18 = icmp sgt i32 %.val.val.i, -500
  br i1 %18, label %.lr.ph.i.i, label %Vec_IntFill.exit.i

.lr.ph.i.i:                                       ; preds = %Vec_IntGrow.exit.i.i
  %19 = zext nneg i32 %11 to i64
  %20 = shl nuw nsw i64 %19, 2
  tail call void @llvm.memset.p0.i64(ptr align 4 %17, i8 0, i64 %20, i1 false), !tbaa !48
  br label %Vec_IntFill.exit.i

Vec_IntFill.exit.i:                               ; preds = %.lr.ph.i.i, %Vec_IntGrow.exit.i.i
  %21 = getelementptr inbounds nuw i8, ptr %4, i64 228
  store i32 %11, ptr %21, align 4, !tbaa !37
  br label %Abc_NtkIncrementTravId.exit

Abc_NtkIncrementTravId.exit:                      ; preds = %1, %Vec_IntFill.exit.i
  %22 = getelementptr inbounds nuw i8, ptr %4, i64 216
  %23 = load i32, ptr %22, align 8, !tbaa !82
  %24 = add nsw i32 %23, 1
  store i32 %24, ptr %22, align 8, !tbaa !82
  %25 = getelementptr inbounds nuw i8, ptr %0, i64 32
  %26 = load ptr, ptr %25, align 8, !tbaa !100
  %27 = getelementptr i8, ptr %26, i64 4
  %.val910 = load i32, ptr %27, align 4, !tbaa !21
  %28 = icmp sgt i32 %.val910, 0
  br i1 %28, label %.lr.ph, label %.critedge

.lr.ph:                                           ; preds = %Abc_NtkIncrementTravId.exit
  %29 = getelementptr inbounds nuw i8, ptr %0, i64 4
  br label %30

30:                                               ; preds = %.lr.ph, %30
  %indvars.iv = phi i64 [ 0, %.lr.ph ], [ %indvars.iv.next, %30 ]
  %31 = phi ptr [ %26, %.lr.ph ], [ %41, %30 ]
  %32 = getelementptr i8, ptr %31, i64 8
  %.val = load ptr, ptr %32, align 8, !tbaa !24
  %33 = getelementptr inbounds nuw ptr, ptr %.val, i64 %indvars.iv
  %34 = load ptr, ptr %33, align 8, !tbaa !44
  %35 = load ptr, ptr %2, align 8, !tbaa !98
  %36 = getelementptr inbounds nuw i8, ptr %35, i64 20
  %37 = load i32, ptr %36, align 4
  %38 = lshr i32 %37, 12
  %39 = load i32, ptr %29, align 4, !tbaa !17
  %40 = add nsw i32 %38, %39
  tail call void @Abc_NtkDontCareWinSweepLeafTfo_rec(ptr noundef %34, i32 noundef %40, ptr noundef %35)
  %indvars.iv.next = add nuw nsw i64 %indvars.iv, 1
  %41 = load ptr, ptr %25, align 8, !tbaa !100
  %42 = getelementptr i8, ptr %41, i64 4
  %.val9 = load i32, ptr %42, align 4, !tbaa !21
  %43 = sext i32 %.val9 to i64
  %44 = icmp slt i64 %indvars.iv.next, %43
  br i1 %44, label %30, label %.critedge, !llvm.loop !101

.critedge:                                        ; preds = %30, %Abc_NtkIncrementTravId.exit
  ret void
}